target datalayout = "e-m:e-p270:32:32-p271:32:32-p272:64:64-i64:64-i128:128-f80:128-n8:16:32:64-S128"
target triple = "x86_64-pc-linux-gnu"

@.str.77 = private unnamed_addr constant [16 x i8] c"%*c<%s>%d</%s>\0A\00", align 1

; Function Attrs: nounwind uwtable
define internal i32 @bitmap_list_snprintf_exp(ptr noalias noundef %0, i64 noundef %1, ptr noalias noundef %2, ptr noundef %3) #0 {
  %5 = alloca i32, align 4
  %6 = alloca ptr, align 8
  %7 = alloca i64, align 8
  %8 = alloca ptr, align 8
  %9 = alloca ptr, align 8
  %10 = alloca i32, align 4
  %11 = alloca ptr, align 8
  %12 = alloca i32, align 4
  %13 = alloca i64, align 8
  %14 = alloca i32, align 4
  %15 = alloca i32, align 4
  %16 = alloca i32, align 4
  %17 = alloca i32, align 4
  %18 = alloca i32, align 4
  store ptr %0, ptr %6, align 8, !tbaa !26
  store i64 %1, ptr %7, align 8, !tbaa !66
  store ptr %2, ptr %8, align 8, !tbaa !27
  store ptr %3, ptr %9, align 8, !tbaa !26
  call void @llvm.lifetime.start.p0(i64 4, ptr %10) #10
  store i32 0, ptr %10, align 4, !tbaa !19
  call void @llvm.lifetime.start.p0(i64 8, ptr %11) #10
  %19 = load ptr, ptr %6, align 8, !tbaa !26
  store ptr %19, ptr %11, align 8, !tbaa !26
  call void @llvm.lifetime.start.p0(i64 4, ptr %12) #10
  store i32 -1, ptr %12, align 4, !tbaa !19
  call void @llvm.lifetime.start.p0(i64 8, ptr %13) #10
  %20 = load i64, ptr %7, align 8, !tbaa !66
  store i64 %20, ptr %13, align 8, !tbaa !66
  call void @llvm.lifetime.start.p0(i64 4, ptr %14) #10
  %21 = load i64, ptr %7, align 8, !tbaa !66
  %22 = icmp ugt i64 %21, 0
  br i1 %22, label %23, label %26

23:                                               ; preds = %4
  %24 = load ptr, ptr %11, align 8, !tbaa !26
  %25 = getelementptr inbounds i8, ptr %24, i64 0
  store i8 0, ptr %25, align 1, !tbaa !89
  br label %26

26:                                               ; preds = %23, %4
  br label %27

27:                                               ; preds = %130, %26
  br label %28

28:                                               ; preds = %27
  call void @llvm.lifetime.start.p0(i64 4, ptr %15) #10
  call void @llvm.lifetime.start.p0(i64 4, ptr %16) #10
  %29 = load ptr, ptr %8, align 8, !tbaa !27
  %30 = load i32, ptr %12, align 4, !tbaa !19
  %31 = call i32 @hwloc_bitmap_next(ptr noundef %29, i32 noundef %30) #11
  store i32 %31, ptr %15, align 4, !tbaa !19
  %32 = load i32, ptr %15, align 4, !tbaa !19
  %33 = icmp eq i32 %32, -1
  br i1 %33, label %34, label %35

34:                                               ; preds = %28
  store i32 3, ptr %17, align 4
  br label %128

35:                                               ; preds = %28
  %36 = load ptr, ptr %8, align 8, !tbaa !27
  %37 = load i32, ptr %15, align 4, !tbaa !19
  %38 = call i32 @hwloc_bitmap_next_unset(ptr noundef %36, i32 noundef %37) #11
  store i32 %38, ptr %16, align 4, !tbaa !19
  %39 = load i32, ptr %16, align 4, !tbaa !19
  %40 = load i32, ptr %15, align 4, !tbaa !19
  %41 = add nsw i32 %40, 1
  %42 = icmp eq i32 %39, %41
  br i1 %42, label %43, label %50

43:                                               ; preds = %35
  %44 = load ptr, ptr %11, align 8, !tbaa !26
  %45 = load i64, ptr %13, align 8, !tbaa !66
  %46 = load ptr, ptr %9, align 8, !tbaa !26
  %47 = load i32, ptr %15, align 4, !tbaa !19
  %48 = load ptr, ptr %9, align 8, !tbaa !26
  %49 = call i32 (ptr, i64, ptr, ...) @snprintf(ptr noundef %44, i64 noundef %45, ptr noundef @.str.77, i32 noundef 20, i32 noundef 32, ptr noundef %46, i32 noundef %47, ptr noundef %48) #10
  store i32 %49, ptr %14, align 4, !tbaa !19
  br label %90

50:                                               ; preds = %35
  %51 = load i32, ptr %16, align 4, !tbaa !19
  %52 = icmp eq i32 %51, -1
  br i1 %52, label %53, label %60

53:                                               ; preds = %50
  %54 = load ptr, ptr %11, align 8, !tbaa !26
  %55 = load i64, ptr %13, align 8, !tbaa !66
  %56 = load ptr, ptr %9, align 8, !tbaa !26
  %57 = load i32, ptr %15, align 4, !tbaa !19
  %58 = load ptr, ptr %9, align 8, !tbaa !26
  %59 = call i32 (ptr, i64, ptr, ...) @snprintf(ptr noundef %54, i64 noundef %55, ptr noundef @.str.77, i32 noundef 20, i32 noundef 32, ptr noundef %56, i32 noundef %57, ptr noundef %58) #10
  store i32 %59, ptr %14, align 4, !tbaa !19
  br label %89

60:                                               ; preds = %50
  call void @llvm.lifetime.start.p0(i64 4, ptr %18) #10
  %61 = load i32, ptr %15, align 4, !tbaa !19
  store i32 %61, ptr %18, align 4, !tbaa !19
  br label %62

62:                                               ; preds = %85, %60
  %63 = load i32, ptr %18, align 4, !tbaa !19
  %64 = load i32, ptr %16, align 4, !tbaa !19
  %65 = sub nsw i32 %64, 1
  %66 = icmp sle i32 %63, %65
  br i1 %66, label %68, label %67

67:                                               ; preds = %62
  store i32 4, ptr %17, align 4
  call void @llvm.lifetime.end.p0(i64 4, ptr %18) #10
  br label %88

68:                                               ; preds = %62
  %69 = load ptr, ptr %11, align 8, !tbaa !26
  %70 = load i64, ptr %13, align 8, !tbaa !66
  %71 = load ptr, ptr %9, align 8, !tbaa !26
  %72 = load i32, ptr %18, align 4, !tbaa !19
  %73 = load ptr, ptr %9, align 8, !tbaa !26
  %74 = call i32 (ptr, i64, ptr, ...) @snprintf(ptr noundef %69, i64 noundef %70, ptr noundef @.str.77, i32 noundef 20, i32 noundef 32, ptr noundef %71, i32 noundef %72, ptr noundef %73) #10
  store i32 %74, ptr %14, align 4, !tbaa !19
  %75 = load i32, ptr %18, align 4, !tbaa !19
  %76 = load i32, ptr %16, align 4, !tbaa !19
  %77 = sub nsw i32 %76, 1
  %78 = icmp ne i32 %75, %77
  br i1 %78, label %79, label %84

79:                                               ; preds = %68
  %80 = load i32, ptr %14, align 4, !tbaa !19
  %81 = load ptr, ptr %11, align 8, !tbaa !26
  %82 = sext i32 %80 to i64
  %83 = getelementptr inbounds i8, ptr %81, i64 %82
  store ptr %83, ptr %11, align 8, !tbaa !26
  br label %84

84:                                               ; preds = %79, %68
  br label %85

85:                                               ; preds = %84
  %86 = load i32, ptr %18, align 4, !tbaa !19
  %87 = add nsw i32 %86, 1
  store i32 %87, ptr %18, align 4, !tbaa !19
  br label %62, !llvm.loop !131

88:                                               ; preds = %67
  br label %89

89:                                               ; preds = %88, %53
  br label %90

90:                                               ; preds = %89, %43
  %91 = load i32, ptr %14, align 4, !tbaa !19
  %92 = icmp slt i32 %91, 0
  br i1 %92, label %93, label %94

93:                                               ; preds = %90
  store i32 -1, ptr %5, align 4
  store i32 1, ptr %17, align 4
  br label %128

94:                                               ; preds = %90
  %95 = load i32, ptr %14, align 4, !tbaa !19
  %96 = load i32, ptr %10, align 4, !tbaa !19
  %97 = add nsw i32 %96, %95
  store i32 %97, ptr %10, align 4, !tbaa !19
  %98 = load i32, ptr %14, align 4, !tbaa !19
  %99 = sext i32 %98 to i64
  %100 = load i64, ptr %13, align 8, !tbaa !66
  %101 = icmp sge i64 %99, %100
  br i1 %101, label %102, label %112

102:                                              ; preds = %94
  %103 = load i64, ptr %13, align 8, !tbaa !66
  %104 = icmp sgt i64 %103, 0
  br i1 %104, label %105, label %109

105:                                              ; preds = %102
  %106 = load i64, ptr %13, align 8, !tbaa !66
  %107 = trunc i64 %106 to i32
  %108 = sub nsw i32 %107, 1
  br label %110

109:                                              ; preds = %102
  br label %110

110:                                              ; preds = %109, %105
  %111 = phi i32 [ %108, %105 ], [ 0, %109 ]
  store i32 %111, ptr %14, align 4, !tbaa !19
  br label %112

112:                                              ; preds = %110, %94
  %113 = load i32, ptr %14, align 4, !tbaa !19
  %114 = load ptr, ptr %11, align 8, !tbaa !26
  %115 = sext i32 %113 to i64
  %116 = getelementptr inbounds i8, ptr %114, i64 %115
  store ptr %116, ptr %11, align 8, !tbaa !26
  %117 = load i32, ptr %14, align 4, !tbaa !19
  %118 = sext i32 %117 to i64
  %119 = load i64, ptr %13, align 8, !tbaa !66
  %120 = sub nsw i64 %119, %118
  store i64 %120, ptr %13, align 8, !tbaa !66
  %121 = load i32, ptr %16, align 4, !tbaa !19
  %122 = icmp eq i32 %121, -1
  br i1 %122, label %123, label %124

123:                                              ; preds = %112
  store i32 3, ptr %17, align 4
  br label %128

124:                                              ; preds = %112
  %125 = load i32, ptr %16, align 4, !tbaa !19
  %126 = sub nsw i32 %125, 1
  store i32 %126, ptr %12, align 4, !tbaa !19
  br label %127

127:                                              ; preds = %124
  store i32 0, ptr %17, align 4
  br label %128

128:                                              ; preds = %127, %123, %93, %34
  call void @llvm.lifetime.end.p0(i64 4, ptr %16) #10
  call void @llvm.lifetime.end.p0(i64 4, ptr %15) #10
  %129 = load i32, ptr %17, align 4
  switch i32 %129, label %133 [
    i32 0, label %130
    i32 3, label %131
  ]

130:                                              ; preds = %128
  br label %27

131:                                              ; preds = %128
  %132 = load i32, ptr %10, align 4, !tbaa !19
  store i32 %132, ptr %5, align 4
  store i32 1, ptr %17, align 4
  br label %133

133:                                              ; preds = %131, %128
  call void @llvm.lifetime.end.p0(i64 4, ptr %14) #10
  call void @llvm.lifetime.end.p0(i64 8, ptr %13) #10
  call void @llvm.lifetime.end.p0(i64 4, ptr %12) #10
  call void @llvm.lifetime.end.p0(i64 8, ptr %11) #10
  call void @llvm.lifetime.end.p0(i64 4, ptr %10) #10
  %134 = load i32, ptr %5, align 4
  ret i32 %134
}