; Function Attrs: nofree nounwind uwtable
define internal fastcc void @bitmap_list_snprintf_exp(ptr noalias noundef writeonly captures(none) %0, i64 noundef range(i64 -2147483648, 2147483648) %1, ptr noalias noundef %2, ptr noundef %3) unnamed_addr #15 {
  %.not = icmp eq i64 %1, 0
  br i1 %.not, label %.preheader1, label %5

5:                                                ; preds = %4
  store i8 0, ptr %0, align 1, !tbaa !54
  br label %.preheader1

.preheader1:                                      ; preds = %5, %4
  br label %6

6:                                                ; preds = %.preheader1, %20
  %.061 = phi ptr [ %27, %20 ], [ %0, %.preheader1 ]
  %.059 = phi i32 [ %30, %20 ], [ -1, %.preheader1 ]
  %.057 = phi i64 [ %28, %20 ], [ %1, %.preheader1 ]
  %.054 = phi i32 [ %.4, %20 ], [ undef, %.preheader1 ]
  %7 = tail call i32 @hwloc_bitmap_next(ptr noundef %2, i32 noundef %.059) #19
  %8 = icmp eq i32 %7, -1
  br i1 %8, label %.thread81, label %9

9:                                                ; preds = %6
  %10 = tail call i32 @hwloc_bitmap_next_unset(ptr noundef %2, i32 noundef %7) #19
  %11 = add nuw nsw i32 %7, 1
  %12 = icmp eq i32 %10, %11
  %13 = icmp eq i32 %10, -1
  %or.cond = or i1 %12, %13
  br i1 %or.cond, label %.loopexit.sink.split, label %.preheader

.preheader:                                       ; preds = %9
  %.not70.not88 = icmp slt i32 %7, %10
  br i1 %.not70.not88, label %.lr.ph, label %.loopexit

.lr.ph:                                           ; preds = %.preheader
  %14 = add nsw i32 %10, -1
  br label %15

15:                                               ; preds = %.lr.ph, %15
  %.090 = phi i32 [ %7, %.lr.ph ], [ %17, %15 ]
  %.36489 = phi ptr [ %.061, %.lr.ph ], [ %.465, %15 ]
  %16 = tail call i32 (ptr, i64, ptr, ...) @snprintf(ptr noundef %.36489, i64 noundef %.057, ptr noundef nonnull @.str.77, i32 noundef 20, i32 noundef 32, ptr noundef %3, i32 noundef %.090, ptr noundef %3) #18
  %.not71 = icmp eq i32 %.090, %14
  %narrow = select i1 %.not71, i32 0, i32 %16
  %.465.idx = sext i32 %narrow to i64
  %.465 = getelementptr inbounds i8, ptr %.36489, i64 %.465.idx
  %17 = add i32 %.090, 1
  %exitcond.not = icmp eq i32 %17, %10
  br i1 %exitcond.not, label %.loopexit, label %15, !llvm.loop !109

.loopexit.sink.split:                             ; preds = %9
  %18 = tail call i32 (ptr, i64, ptr, ...) @snprintf(ptr noundef %.061, i64 noundef %.057, ptr noundef nonnull @.str.77, i32 noundef 20, i32 noundef 32, ptr noundef %3, i32 noundef %7, ptr noundef %3) #18
  br label %.loopexit

.loopexit:                                        ; preds = %15, %.loopexit.sink.split, %.preheader
  %.263 = phi ptr [ %.061, %.preheader ], [ %.061, %.loopexit.sink.split ], [ %.465, %15 ]
  %.256 = phi i32 [ %.054, %.preheader ], [ %18, %.loopexit.sink.split ], [ %16, %15 ]
  %19 = icmp slt i32 %.256, 0
  br i1 %19, label %.thread81, label %20

20:                                               ; preds = %.loopexit
  %21 = zext nneg i32 %.256 to i64
  %.not72 = icmp sgt i64 %.057, %21
  %22 = icmp sgt i64 %.057, 0
  %23 = trunc i64 %.057 to i32
  %24 = add nsw i32 %23, -1
  %25 = select i1 %22, i32 %24, i32 0
  %.4 = select i1 %.not72, i32 %.256, i32 %25
  %26 = sext i32 %.4 to i64
  %27 = getelementptr inbounds i8, ptr %.263, i64 %26
  %28 = sub nsw i64 %.057, %26
  %29 = icmp eq i32 %10, -1
  %30 = add nsw i32 %10, -1
  br i1 %29, label %.thread81, label %6

.thread81:                                        ; preds = %20, %.loopexit, %6
  ret void
}